target datalayout = "e-m:e-p270:32:32-p271:32:32-p272:64:64-i64:64-i128:128-f80:128-n8:16:32:64-S128"
target triple = "x86_64-pc-linux-gnu"

@bio_err = external global ptr, align 8
@.str.35 = private unnamed_addr constant [15 x i8] c"out of memory\0A\00", align 1

; Function Attrs: nounwind uwtable
define dso_local ptr @next_item(ptr noundef %0) #0 {
  %2 = alloca ptr, align 8
  store ptr %0, ptr %2, align 8, !tbaa !9
  br label %3

3:                                                ; preds = %27, %1
  %4 = load ptr, ptr %2, align 8, !tbaa !9
  %5 = load i8, ptr %4, align 1, !tbaa !11
  %6 = sext i8 %5 to i32
  %7 = icmp ne i32 %6, 44
  br i1 %7, label %8, label %25

8:                                                ; preds = %3
  %9 = call ptr @__ctype_b_loc() #13
  %10 = load ptr, ptr %9, align 8, !tbaa !18
  %11 = load ptr, ptr %2, align 8, !tbaa !9
  %12 = load i8, ptr %11, align 1, !tbaa !11
  %13 = zext i8 %12 to i32
  %14 = sext i32 %13 to i64
  %15 = getelementptr inbounds i16, ptr %10, i64 %14
  %16 = load i16, ptr %15, align 2, !tbaa !20
  %17 = zext i16 %16 to i32
  %18 = and i32 %17, 8192
  %19 = icmp ne i32 %18, 0
  br i1 %19, label %25, label %20

20:                                               ; preds = %8
  %21 = load ptr, ptr %2, align 8, !tbaa !9
  %22 = load i8, ptr %21, align 1, !tbaa !11
  %23 = sext i8 %22 to i32
  %24 = icmp ne i32 %23, 0
  br label %25

25:                                               ; preds = %20, %8, %3
  %26 = phi i1 [ false, %8 ], [ false, %3 ], [ %24, %20 ]
  br i1 %26, label %27, label %30

27:                                               ; preds = %25
  %28 = load ptr, ptr %2, align 8, !tbaa !9
  %29 = getelementptr inbounds nuw i8, ptr %28, i32 1
  store ptr %29, ptr %2, align 8, !tbaa !9
  br label %3, !llvm.loop !88

30:                                               ; preds = %25
  %31 = load ptr, ptr %2, align 8, !tbaa !9
  %32 = load i8, ptr %31, align 1, !tbaa !11
  %33 = sext i8 %32 to i32
  %34 = icmp ne i32 %33, 0
  br i1 %34, label %35, label %54

35:                                               ; preds = %30
  %36 = load ptr, ptr %2, align 8, !tbaa !9
  %37 = getelementptr inbounds nuw i8, ptr %36, i32 1
  store ptr %37, ptr %2, align 8, !tbaa !9
  store i8 0, ptr %36, align 1, !tbaa !11
  br label %38

38:                                               ; preds = %50, %35
  %39 = call ptr @__ctype_b_loc() #13
  %40 = load ptr, ptr %39, align 8, !tbaa !18
  %41 = load ptr, ptr %2, align 8, !tbaa !9
  %42 = load i8, ptr %41, align 1, !tbaa !11
  %43 = zext i8 %42 to i32
  %44 = sext i32 %43 to i64
  %45 = getelementptr inbounds i16, ptr %40, i64 %44
  %46 = load i16, ptr %45, align 2, !tbaa !20
  %47 = zext i16 %46 to i32
  %48 = and i32 %47, 8192
  %49 = icmp ne i32 %48, 0
  br i1 %49, label %50, label %53

50:                                               ; preds = %38
  %51 = load ptr, ptr %2, align 8, !tbaa !9
  %52 = getelementptr inbounds nuw i8, ptr %51, i32 1
  store ptr %52, ptr %2, align 8, !tbaa !9
  br label %38, !llvm.loop !89

53:                                               ; preds = %38
  br label %54

54:                                               ; preds = %53, %30
  %55 = load ptr, ptr %2, align 8, !tbaa !9
  %56 = load i8, ptr %55, align 1, !tbaa !11
  %57 = sext i8 %56 to i32
  %58 = icmp eq i32 %57, 0
  br i1 %58, label %59, label %60

59:                                               ; preds = %54
  br label %62

60:                                               ; preds = %54
  %61 = load ptr, ptr %2, align 8, !tbaa !9
  br label %62

62:                                               ; preds = %60, %59
  %63 = phi ptr [ null, %59 ], [ %61, %60 ]
  ret ptr %63
}

; Function Attrs: nounwind uwtable
define dso_local ptr @load_certs_multifile(ptr noundef %0, ptr noundef %1, ptr noundef %2, ptr noundef %3) #0 {
  %5 = alloca ptr, align 8
  %6 = alloca ptr, align 8
  %7 = alloca ptr, align 8
  %8 = alloca ptr, align 8
  %9 = alloca ptr, align 8
  %10 = alloca ptr, align 8
  %11 = alloca ptr, align 8
  %12 = alloca ptr, align 8
  %13 = alloca i32, align 4
  store ptr %0, ptr %6, align 8, !tbaa !9
  store ptr %1, ptr %7, align 8, !tbaa !9
  store ptr %2, ptr %8, align 8, !tbaa !9
  store ptr %3, ptr %9, align 8, !tbaa !90
  call void @llvm.lifetime.start.p0(i64 8, ptr %10) #12
  store ptr null, ptr %10, align 8, !tbaa !69
  call void @llvm.lifetime.start.p0(i64 8, ptr %11) #12
  %14 = call ptr @OPENSSL_sk_new_null()
  store ptr %14, ptr %11, align 8, !tbaa !69
  %15 = load ptr, ptr %6, align 8, !tbaa !9
  %16 = icmp eq ptr %15, null
  br i1 %16, label %17, label %18

17:                                               ; preds = %4
  br label %53

18:                                               ; preds = %4
  %19 = load ptr, ptr %11, align 8, !tbaa !69
  %20 = icmp eq ptr %19, null
  br i1 %20, label %21, label %22

21:                                               ; preds = %18
  br label %50

22:                                               ; preds = %18
  br label %23

23:                                               ; preds = %47, %22
  %24 = load ptr, ptr %6, align 8, !tbaa !9
  %25 = icmp ne ptr %24, null
  br i1 %25, label %26, label %48

26:                                               ; preds = %23
  call void @llvm.lifetime.start.p0(i64 8, ptr %12) #12
  %27 = load ptr, ptr %6, align 8, !tbaa !9
  %28 = call ptr @next_item(ptr noundef %27)
  store ptr %28, ptr %12, align 8, !tbaa !9
  %29 = load ptr, ptr %6, align 8, !tbaa !9
  %30 = load ptr, ptr %7, align 8, !tbaa !9
  %31 = load ptr, ptr %8, align 8, !tbaa !9
  %32 = load ptr, ptr %9, align 8, !tbaa !90
  %33 = call i32 @load_cert_certs(ptr noundef %29, ptr noundef null, ptr noundef %10, i32 noundef 0, ptr noundef %30, ptr noundef %31, ptr noundef %32)
  %34 = icmp ne i32 %33, 0
  br i1 %34, label %36, label %35

35:                                               ; preds = %26
  store i32 2, ptr %13, align 4
  br label %45

36:                                               ; preds = %26
  %37 = load ptr, ptr %11, align 8, !tbaa !69
  %38 = load ptr, ptr %10, align 8, !tbaa !69
  %39 = call i32 @X509_add_certs(ptr noundef %37, ptr noundef %38, i32 noundef 5)
  %40 = icmp ne i32 %39, 0
  br i1 %40, label %42, label %41

41:                                               ; preds = %36
  store i32 3, ptr %13, align 4
  br label %45

42:                                               ; preds = %36
  %43 = load ptr, ptr %10, align 8, !tbaa !69
  call void @OSSL_STACK_OF_X509_free(ptr noundef %43)
  store ptr null, ptr %10, align 8, !tbaa !69
  %44 = load ptr, ptr %12, align 8, !tbaa !9
  store ptr %44, ptr %6, align 8, !tbaa !9
  store i32 0, ptr %13, align 4
  br label %45

45:                                               ; preds = %41, %35, %42
  call void @llvm.lifetime.end.p0(i64 8, ptr %12) #12
  %46 = load i32, ptr %13, align 4
  switch i32 %46, label %56 [
    i32 0, label %47
    i32 3, label %50
    i32 2, label %53
  ]

47:                                               ; preds = %45
  br label %23, !llvm.loop !93

48:                                               ; preds = %23
  %49 = load ptr, ptr %11, align 8, !tbaa !69
  store ptr %49, ptr %5, align 8
  store i32 1, ptr %13, align 4
  br label %56

50:                                               ; preds = %45, %21
  %51 = load ptr, ptr @bio_err, align 8, !tbaa !35
  %52 = call i32 (ptr, ptr, ...) @BIO_printf(ptr noundef %51, ptr noundef @.str.35)
  br label %53

53:                                               ; preds = %50, %45, %17
  %54 = load ptr, ptr %10, align 8, !tbaa !69
  call void @OSSL_STACK_OF_X509_free(ptr noundef %54)
  %55 = load ptr, ptr %11, align 8, !tbaa !69
  call void @OSSL_STACK_OF_X509_free(ptr noundef %55)
  store ptr null, ptr %5, align 8
  store i32 1, ptr %13, align 4
  br label %56

56:                                               ; preds = %53, %48, %45
  call void @llvm.lifetime.end.p0(i64 8, ptr %11) #12
  call void @llvm.lifetime.end.p0(i64 8, ptr %10) #12
  %57 = load ptr, ptr %5, align 8
  ret ptr %57
}