; Function Attrs: nounwind uwtable
define dso_local ptr @load_certs_multifile(ptr noundef %0, ptr noundef %1, ptr noundef %2, ptr noundef %3) local_unnamed_addr #0 {
  %5 = alloca ptr, align 8
  call void @llvm.lifetime.start.p0(i64 8, ptr nonnull %5) #27
  store ptr null, ptr %5, align 8, !tbaa !39
  %6 = tail call ptr @OPENSSL_sk_new_null() #27
  %7 = icmp eq ptr %0, null
  br i1 %7, label %.thread20, label %8

8:                                                ; preds = %4
  %9 = icmp eq ptr %6, null
  br i1 %9, label %.thread, label %.preheader

.preheader:                                       ; preds = %8
  %.pre.i = tail call ptr @__ctype_b_loc() #28
  br label %10

10:                                               ; preds = %.preheader, %36
  %.01426 = phi ptr [ %0, %.preheader ], [ %31, %36 ]
  %11 = load i8, ptr %.01426, align 1, !tbaa !13
  %.not19.i = icmp eq i8 %11, 44
  br i1 %.not19.i, label %.critedge.thread.i, label %.lr.ph.i

.lr.ph.i:                                         ; preds = %10
  %12 = load ptr, ptr %.pre.i, align 8, !tbaa !14
  br label %13

13:                                               ; preds = %19, %.lr.ph.i
  %14 = phi i8 [ %11, %.lr.ph.i ], [ %21, %19 ]
  %.020.i = phi ptr [ %.01426, %.lr.ph.i ], [ %20, %19 ]
  %15 = zext i8 %14 to i64
  %16 = getelementptr inbounds nuw i16, ptr %12, i64 %15
  %17 = load i16, ptr %16, align 2, !tbaa !16
  %18 = and i16 %17, 8192
  %.not11.i = icmp ne i16 %18, 0
  %.not12.i = icmp eq i8 %14, 0
  %or.cond.i = or i1 %.not12.i, %.not11.i
  br i1 %or.cond.i, label %.critedge.i, label %19

19:                                               ; preds = %13
  %20 = getelementptr inbounds nuw i8, ptr %.020.i, i64 1
  %21 = load i8, ptr %20, align 1, !tbaa !13
  %.not.i = icmp eq i8 %21, 44
  br i1 %.not.i, label %.critedge.thread.i, label %13, !llvm.loop !52

.critedge.i:                                      ; preds = %13
  br i1 %.not12.i, label %next_item.exit, label %.critedge.thread.i

.critedge.thread.i:                               ; preds = %19, %.critedge.i, %10
  %.018.i = phi ptr [ %.020.i, %.critedge.i ], [ %.01426, %10 ], [ %20, %19 ]
  store i8 0, ptr %.018.i, align 1, !tbaa !13
  %22 = load ptr, ptr %.pre.i, align 8, !tbaa !14
  br label %23

23:                                               ; preds = %23, %.critedge.thread.i
  %.0.pn.i = phi ptr [ %.018.i, %.critedge.thread.i ], [ %.2.i, %23 ]
  %.2.i = getelementptr inbounds nuw i8, ptr %.0.pn.i, i64 1
  %24 = load i8, ptr %.2.i, align 1, !tbaa !13
  %25 = zext i8 %24 to i64
  %26 = getelementptr inbounds nuw i16, ptr %22, i64 %25
  %27 = load i16, ptr %26, align 2, !tbaa !16
  %28 = and i16 %27, 8192
  %.not14.i = icmp eq i16 %28, 0
  br i1 %.not14.i, label %.loopexit.loopexit.i, label %23, !llvm.loop !53

.loopexit.loopexit.i:                             ; preds = %23
  %29 = icmp eq i8 %24, 0
  %30 = select i1 %29, ptr null, ptr %.2.i
  br label %next_item.exit

next_item.exit:                                   ; preds = %.critedge.i, %.loopexit.loopexit.i
  %31 = phi ptr [ null, %.critedge.i ], [ %30, %.loopexit.loopexit.i ]
  %32 = call i32 @load_cert_certs(ptr noundef nonnull %.01426, ptr noundef null, ptr noundef nonnull %5, i32 noundef 0, ptr noundef %1, ptr noundef %2, ptr noundef %3)
  %.not16 = icmp eq i32 %32, 0
  br i1 %.not16, label %.thread20, label %33

33:                                               ; preds = %next_item.exit
  %34 = load ptr, ptr %5, align 8, !tbaa !39
  %35 = call i32 @X509_add_certs(ptr noundef nonnull %6, ptr noundef %34, i32 noundef 5) #27
  %.not17 = icmp eq i32 %35, 0
  br i1 %.not17, label %.thread, label %36

36:                                               ; preds = %33
  %37 = load ptr, ptr %5, align 8, !tbaa !39
  call void @OSSL_STACK_OF_X509_free(ptr noundef %37) #27
  store ptr null, ptr %5, align 8, !tbaa !39
  %.not = icmp eq ptr %31, null
  br i1 %.not, label %.loopexit, label %10

.thread:                                          ; preds = %33, %8
  %38 = load ptr, ptr @bio_err, align 8, !tbaa !26
  %39 = call i32 (ptr, ptr, ...) @BIO_printf(ptr noundef %38, ptr noundef nonnull @.str.35) #27
  br label %.thread20

.thread20:                                        ; preds = %next_item.exit, %4, %.thread
  %40 = load ptr, ptr %5, align 8, !tbaa !39
  call void @OSSL_STACK_OF_X509_free(ptr noundef %40) #27
  call void @OSSL_STACK_OF_X509_free(ptr noundef %6) #27
  br label %.loopexit

.loopexit:                                        ; preds = %36, %.thread20
  %.013 = phi ptr [ null, %.thread20 ], [ %6, %36 ]
  call void @llvm.lifetime.end.p0(i64 8, ptr nonnull %5) #27
  ret ptr %.013
}